; Function Attrs: mustprogress nofree norecurse nosync nounwind willreturn memory(argmem: readwrite) uwtable
define hidden void @_ZN10func_declsC2ER11ast_managerP9func_decl(ptr nocapture noundef nonnull writeonly align 8 dereferenceable(8) %this, ptr nocapture nonnull readnone align 8 %m, ptr noundef %f) unnamed_addr #3 align 2 {
entry:
  store ptr %f, ptr %this, align 8
  %tobool.not.i = icmp eq ptr %f, null
  br i1 %tobool.not.i, label %_ZN11ast_manager7inc_refEP3ast.exit, label %if.then.i

if.then.i:                                        ; preds = %entry
  %m_ref_count.i.i = getelementptr inbounds i8, ptr %f, i64 8
  %0 = load i32, ptr %m_ref_count.i.i, align 4
  %inc.i.i = add i32 %0, 1
  store i32 %inc.i.i, ptr %m_ref_count.i.i, align 4
  br label %_ZN11ast_manager7inc_refEP3ast.exit

_ZN11ast_manager7inc_refEP3ast.exit:              ; preds = %entry, %if.then.i
  ret void
}